; Function Attrs: nounwind uwtable
define void @lv_buttonmatrix_set_ctrl_map(ptr noundef %0, ptr noundef %1) local_unnamed_addr #0 {
  %3 = getelementptr inbounds nuw i8, ptr %0, i64 80
  %4 = load ptr, ptr %3, align 8, !tbaa !15
  %5 = getelementptr inbounds nuw i8, ptr %0, i64 88
  %6 = load i32, ptr %5, align 8, !tbaa !3
  %7 = zext i32 %6 to i64
  %8 = shl nuw nsw i64 %7, 2
  %9 = tail call ptr @lv_memcpy(ptr noundef %4, ptr noundef %1, i64 noundef %8) #7
  %10 = getelementptr inbounds nuw i8, ptr %0, i64 64
  %11 = load ptr, ptr %10, align 8, !tbaa !16
  tail call void @lv_buttonmatrix_set_map(ptr noundef %0, ptr noundef %11)
  ret void
}